target datalayout = "e-m:e-p270:32:32-p271:32:32-p272:64:64-i64:64-i128:128-f80:128-n8:16:32:64-S128"
target triple = "x86_64-pc-linux-gnu"

; Function Attrs: nounwind uwtable
define internal zeroext i8 @BlendChannelNonPremult(i32 noundef %0, i8 noundef zeroext %1, i32 noundef %2, i8 noundef zeroext %3, i32 noundef %4, i32 noundef %5) #0 {
  %7 = alloca i32, align 4
  %8 = alloca i8, align 1
  %9 = alloca i32, align 4
  %10 = alloca i8, align 1
  %11 = alloca i32, align 4
  %12 = alloca i32, align 4
  %13 = alloca i8, align 1
  %14 = alloca i8, align 1
  %15 = alloca i32, align 4
  store i32 %0, ptr %7, align 4, !tbaa !8
  store i8 %1, ptr %8, align 1, !tbaa !23
  store i32 %2, ptr %9, align 4, !tbaa !8
  store i8 %3, ptr %10, align 1, !tbaa !23
  store i32 %4, ptr %11, align 4, !tbaa !8
  store i32 %5, ptr %12, align 4, !tbaa !8
  call void @llvm.lifetime.start.p0(i64 1, ptr %13) #6
  %16 = load i32, ptr %7, align 4, !tbaa !8
  %17 = load i32, ptr %12, align 4, !tbaa !8
  %18 = lshr i32 %16, %17
  %19 = and i32 %18, 255
  %20 = trunc i32 %19 to i8
  store i8 %20, ptr %13, align 1, !tbaa !23
  call void @llvm.lifetime.start.p0(i64 1, ptr %14) #6
  %21 = load i32, ptr %9, align 4, !tbaa !8
  %22 = load i32, ptr %12, align 4, !tbaa !8
  %23 = lshr i32 %21, %22
  %24 = and i32 %23, 255
  %25 = trunc i32 %24 to i8
  store i8 %25, ptr %14, align 1, !tbaa !23
  call void @llvm.lifetime.start.p0(i64 4, ptr %15) #6
  %26 = load i8, ptr %13, align 1, !tbaa !23
  %27 = zext i8 %26 to i32
  %28 = load i8, ptr %8, align 1, !tbaa !23
  %29 = zext i8 %28 to i32
  %30 = mul nsw i32 %27, %29
  %31 = load i8, ptr %14, align 1, !tbaa !23
  %32 = zext i8 %31 to i32
  %33 = load i8, ptr %10, align 1, !tbaa !23
  %34 = zext i8 %33 to i32
  %35 = mul nsw i32 %32, %34
  %36 = add nsw i32 %30, %35
  store i32 %36, ptr %15, align 4, !tbaa !8
  %37 = load i32, ptr %15, align 4, !tbaa !8
  %38 = load i32, ptr %11, align 4, !tbaa !8
  %39 = mul i32 %37, %38
  %40 = lshr i32 %39, 24
  %41 = trunc i32 %40 to i8
  call void @llvm.lifetime.end.p0(i64 4, ptr %15) #6
  call void @llvm.lifetime.end.p0(i64 1, ptr %14) #6
  call void @llvm.lifetime.end.p0(i64 1, ptr %13) #6
  ret i8 %41
}

; Function Attrs: nounwind uwtable
define internal i32 @BlendPixelNonPremult(i32 noundef %0, i32 noundef %1) #0 {
  %3 = alloca i32, align 4
  %4 = alloca i32, align 4
  %5 = alloca i32, align 4
  %6 = alloca i8, align 1
  %7 = alloca i32, align 4
  %8 = alloca i8, align 1
  %9 = alloca i8, align 1
  %10 = alloca i8, align 1
  %11 = alloca i32, align 4
  %12 = alloca i8, align 1
  %13 = alloca i8, align 1
  %14 = alloca i8, align 1
  store i32 %0, ptr %4, align 4, !tbaa !8
  store i32 %1, ptr %5, align 4, !tbaa !8
  call void @llvm.lifetime.start.p0(i64 1, ptr %6) #6
  %15 = load i32, ptr %4, align 4, !tbaa !8
  %16 = lshr i32 %15, 24
  %17 = and i32 %16, 255
  %18 = trunc i32 %17 to i8
  store i8 %18, ptr %6, align 1, !tbaa !23
  %19 = load i8, ptr %6, align 1, !tbaa !23
  %20 = zext i8 %19 to i32
  %21 = icmp eq i32 %20, 0
  br i1 %21, label %22, label %24

22:                                               ; preds = %2
  %23 = load i32, ptr %5, align 4, !tbaa !8
  store i32 %23, ptr %3, align 4
  store i32 1, ptr %7, align 4
  br label %80

24:                                               ; preds = %2
  call void @llvm.lifetime.start.p0(i64 1, ptr %8) #6
  %25 = load i32, ptr %5, align 4, !tbaa !8
  %26 = lshr i32 %25, 24
  %27 = and i32 %26, 255
  %28 = trunc i32 %27 to i8
  store i8 %28, ptr %8, align 1, !tbaa !23
  call void @llvm.lifetime.start.p0(i64 1, ptr %9) #6
  %29 = load i8, ptr %8, align 1, !tbaa !23
  %30 = zext i8 %29 to i32
  %31 = load i8, ptr %6, align 1, !tbaa !23
  %32 = zext i8 %31 to i32
  %33 = sub nsw i32 256, %32
  %34 = mul nsw i32 %30, %33
  %35 = ashr i32 %34, 8
  %36 = trunc i32 %35 to i8
  store i8 %36, ptr %9, align 1, !tbaa !23
  call void @llvm.lifetime.start.p0(i64 1, ptr %10) #6
  %37 = load i8, ptr %6, align 1, !tbaa !23
  %38 = zext i8 %37 to i32
  %39 = load i8, ptr %9, align 1, !tbaa !23
  %40 = zext i8 %39 to i32
  %41 = add nsw i32 %38, %40
  %42 = trunc i32 %41 to i8
  store i8 %42, ptr %10, align 1, !tbaa !23
  call void @llvm.lifetime.start.p0(i64 4, ptr %11) #6
  %43 = load i8, ptr %10, align 1, !tbaa !23
  %44 = zext i8 %43 to i64
  %45 = udiv i64 16777216, %44
  %46 = trunc i64 %45 to i32
  store i32 %46, ptr %11, align 4, !tbaa !8
  call void @llvm.lifetime.start.p0(i64 1, ptr %12) #6
  %47 = load i32, ptr %4, align 4, !tbaa !8
  %48 = load i8, ptr %6, align 1, !tbaa !23
  %49 = load i32, ptr %5, align 4, !tbaa !8
  %50 = load i8, ptr %9, align 1, !tbaa !23
  %51 = load i32, ptr %11, align 4, !tbaa !8
  %52 = call zeroext i8 @BlendChannelNonPremult(i32 noundef %47, i8 noundef zeroext %48, i32 noundef %49, i8 noundef zeroext %50, i32 noundef %51, i32 noundef 0)
  store i8 %52, ptr %12, align 1, !tbaa !23
  call void @llvm.lifetime.start.p0(i64 1, ptr %13) #6
  %53 = load i32, ptr %4, align 4, !tbaa !8
  %54 = load i8, ptr %6, align 1, !tbaa !23
  %55 = load i32, ptr %5, align 4, !tbaa !8
  %56 = load i8, ptr %9, align 1, !tbaa !23
  %57 = load i32, ptr %11, align 4, !tbaa !8
  %58 = call zeroext i8 @BlendChannelNonPremult(i32 noundef %53, i8 noundef zeroext %54, i32 noundef %55, i8 noundef zeroext %56, i32 noundef %57, i32 noundef 8)
  store i8 %58, ptr %13, align 1, !tbaa !23
  call void @llvm.lifetime.start.p0(i64 1, ptr %14) #6
  %59 = load i32, ptr %4, align 4, !tbaa !8
  %60 = load i8, ptr %6, align 1, !tbaa !23
  %61 = load i32, ptr %5, align 4, !tbaa !8
  %62 = load i8, ptr %9, align 1, !tbaa !23
  %63 = load i32, ptr %11, align 4, !tbaa !8
  %64 = call zeroext i8 @BlendChannelNonPremult(i32 noundef %59, i8 noundef zeroext %60, i32 noundef %61, i8 noundef zeroext %62, i32 noundef %63, i32 noundef 16)
  store i8 %64, ptr %14, align 1, !tbaa !23
  %65 = load i8, ptr %12, align 1, !tbaa !23
  %66 = zext i8 %65 to i32
  %67 = shl i32 %66, 0
  %68 = load i8, ptr %13, align 1, !tbaa !23
  %69 = zext i8 %68 to i32
  %70 = shl i32 %69, 8
  %71 = or i32 %67, %70
  %72 = load i8, ptr %14, align 1, !tbaa !23
  %73 = zext i8 %72 to i32
  %74 = shl i32 %73, 16
  %75 = or i32 %71, %74
  %76 = load i8, ptr %10, align 1, !tbaa !23
  %77 = zext i8 %76 to i32
  %78 = shl i32 %77, 24
  %79 = or i32 %75, %78
  store i32 %79, ptr %3, align 4
  store i32 1, ptr %7, align 4
  call void @llvm.lifetime.end.p0(i64 1, ptr %14) #6
  call void @llvm.lifetime.end.p0(i64 1, ptr %13) #6
  call void @llvm.lifetime.end.p0(i64 1, ptr %12) #6
  call void @llvm.lifetime.end.p0(i64 4, ptr %11) #6
  call void @llvm.lifetime.end.p0(i64 1, ptr %10) #6
  call void @llvm.lifetime.end.p0(i64 1, ptr %9) #6
  call void @llvm.lifetime.end.p0(i64 1, ptr %8) #6
  br label %80

80:                                               ; preds = %24, %22
  call void @llvm.lifetime.end.p0(i64 1, ptr %6) #6
  %81 = load i32, ptr %3, align 4
  ret i32 %81
}

; Function Attrs: nounwind uwtable
define internal void @BlendPixelRowNonPremult(ptr noundef %0, ptr noundef %1, i32 noundef %2) #0 {
  %4 = alloca ptr, align 8
  %5 = alloca ptr, align 8
  %6 = alloca i32, align 4
  %7 = alloca i32, align 4
  %8 = alloca i8, align 1
  store ptr %0, ptr %4, align 8, !tbaa !58
  store ptr %1, ptr %5, align 8, !tbaa !58
  store i32 %2, ptr %6, align 4, !tbaa !8
  call void @llvm.lifetime.start.p0(i64 4, ptr %7) #6
  store i32 0, ptr %7, align 4, !tbaa !8
  br label %9

9:                                                ; preds = %42, %3
  %10 = load i32, ptr %7, align 4, !tbaa !8
  %11 = load i32, ptr %6, align 4, !tbaa !8
  %12 = icmp slt i32 %10, %11
  br i1 %12, label %13, label %45

13:                                               ; preds = %9
  call void @llvm.lifetime.start.p0(i64 1, ptr %8) #6
  %14 = load ptr, ptr %4, align 8, !tbaa !58
  %15 = load i32, ptr %7, align 4, !tbaa !8
  %16 = sext i32 %15 to i64
  %17 = getelementptr inbounds i32, ptr %14, i64 %16
  %18 = load i32, ptr %17, align 4, !tbaa !8
  %19 = lshr i32 %18, 24
  %20 = and i32 %19, 255
  %21 = trunc i32 %20 to i8
  store i8 %21, ptr %8, align 1, !tbaa !23
  %22 = load i8, ptr %8, align 1, !tbaa !23
  %23 = zext i8 %22 to i32
  %24 = icmp ne i32 %23, 255
  br i1 %24, label %25, label %41

25:                                               ; preds = %13
  %26 = load ptr, ptr %4, align 8, !tbaa !58
  %27 = load i32, ptr %7, align 4, !tbaa !8
  %28 = sext i32 %27 to i64
  %29 = getelementptr inbounds i32, ptr %26, i64 %28
  %30 = load i32, ptr %29, align 4, !tbaa !8
  %31 = load ptr, ptr %5, align 8, !tbaa !58
  %32 = load i32, ptr %7, align 4, !tbaa !8
  %33 = sext i32 %32 to i64
  %34 = getelementptr inbounds i32, ptr %31, i64 %33
  %35 = load i32, ptr %34, align 4, !tbaa !8
  %36 = call i32 @BlendPixelNonPremult(i32 noundef %30, i32 noundef %35)
  %37 = load ptr, ptr %4, align 8, !tbaa !58
  %38 = load i32, ptr %7, align 4, !tbaa !8
  %39 = sext i32 %38 to i64
  %40 = getelementptr inbounds i32, ptr %37, i64 %39
  store i32 %36, ptr %40, align 4, !tbaa !8
  br label %41

41:                                               ; preds = %25, %13
  call void @llvm.lifetime.end.p0(i64 1, ptr %8) #6
  br label %42

42:                                               ; preds = %41
  %43 = load i32, ptr %7, align 4, !tbaa !8
  %44 = add nsw i32 %43, 1
  store i32 %44, ptr %7, align 4, !tbaa !8
  br label %9, !llvm.loop !90

45:                                               ; preds = %9
  call void @llvm.lifetime.end.p0(i64 4, ptr %7) #6
  ret void
}