; Function Attrs: nofree norecurse nosync nounwind memory(argmem: readwrite) uwtable
define internal void @BlendPixelRowNonPremult(ptr noundef captures(none) %0, ptr noundef readonly captures(none) %1, i32 noundef %2) #8 {
  %4 = icmp sgt i32 %2, 0
  br i1 %4, label %.lr.ph.preheader, label %._crit_edge

.lr.ph.preheader:                                 ; preds = %3
  %wide.trip.count = zext nneg i32 %2 to i64
  br label %.lr.ph

.lr.ph:                                           ; preds = %.lr.ph.preheader, %50
  %indvars.iv = phi i64 [ 0, %.lr.ph.preheader ], [ %indvars.iv.next, %50 ]
  %5 = getelementptr inbounds nuw i32, ptr %0, i64 %indvars.iv
  %6 = load i32, ptr %5, align 4, !tbaa !15
  %.not = icmp ugt i32 %6, -16777217
  br i1 %.not, label %50, label %7

7:                                                ; preds = %.lr.ph
  %8 = getelementptr inbounds nuw i32, ptr %1, i64 %indvars.iv
  %9 = load i32, ptr %8, align 4, !tbaa !15
  %10 = icmp ult i32 %6, 16777216
  br i1 %10, label %BlendPixelNonPremult.exit, label %11

11:                                               ; preds = %7
  %12 = lshr i32 %6, 24
  %13 = lshr i32 %9, 24
  %14 = sub nuw nsw i32 256, %12
  %15 = mul nuw nsw i32 %13, %14
  %16 = lshr i32 %15, 8
  %17 = add nuw nsw i32 %16, %12
  %.mask.i = and i32 %17, 255
  %18 = udiv i32 16777216, %.mask.i
  %19 = and i32 %6, 255
  %20 = mul nuw nsw i32 %19, %12
  %21 = and i32 %9, 255
  %22 = mul nuw nsw i32 %16, %21
  %23 = add nuw nsw i32 %22, %20
  %24 = mul i32 %18, %23
  %25 = lshr i32 %24, 24
  %26 = lshr i32 %6, 8
  %27 = lshr i32 %9, 8
  %28 = and i32 %26, 255
  %29 = mul nuw nsw i32 %28, %12
  %30 = and i32 %27, 255
  %31 = mul nuw nsw i32 %16, %30
  %32 = add nuw nsw i32 %31, %29
  %33 = mul i32 %18, %32
  %34 = lshr i32 %6, 16
  %35 = lshr i32 %9, 16
  %36 = and i32 %34, 255
  %37 = mul nuw nsw i32 %36, %12
  %38 = and i32 %35, 255
  %39 = mul nuw nsw i32 %16, %38
  %40 = add nuw nsw i32 %39, %37
  %41 = mul i32 %18, %40
  %42 = lshr i32 %33, 16
  %43 = and i32 %42, 65280
  %44 = lshr i32 %41, 8
  %45 = and i32 %44, 16711680
  %46 = shl i32 %17, 24
  %47 = or disjoint i32 %25, %46
  %48 = or disjoint i32 %47, %43
  %49 = or disjoint i32 %48, %45
  br label %BlendPixelNonPremult.exit

BlendPixelNonPremult.exit:                        ; preds = %7, %11
  %.0.i = phi i32 [ %49, %11 ], [ %9, %7 ]
  store i32 %.0.i, ptr %5, align 4, !tbaa !15
  br label %50

50:                                               ; preds = %BlendPixelNonPremult.exit, %.lr.ph
  %indvars.iv.next = add nuw nsw i64 %indvars.iv, 1
  %exitcond.not = icmp eq i64 %indvars.iv.next, %wide.trip.count
  br i1 %exitcond.not, label %._crit_edge, label %.lr.ph, !llvm.loop !68

._crit_edge:                                      ; preds = %50, %3
  ret void
}